; ModuleID = 'bench/openssl/original/e_null.ll'
source_filename = "bench/openssl/original/e_null.ll"
target datalayout = "e-m:e-p270:32:32-p271:32:32-p272:64:64-i64:64-i128:128-f80:128-n8:16:32:64-S128"
target triple = "x86_64-pc-linux-gnu"

%struct.CRYPTO_REF_COUNT = type { i32 }

@n_cipher = internal constant { i32, i32, i32, i32, i64, i32, [4 x i8], ptr, ptr, ptr, i32, [4 x i8], ptr, ptr, ptr, ptr, i32, [4 x i8], ptr, ptr, ptr, %struct.CRYPTO_REF_COUNT, [4 x i8], ptr, ptr, ptr, ptr, ptr, ptr, ptr, ptr, ptr, ptr, ptr, ptr, ptr, ptr, ptr, ptr, ptr, ptr, ptr, ptr } { i32 0, i32 1, i32 0, i32 0, i64 0, i32 1, [4 x i8] zeroinitializer, ptr @null_init_key, ptr @null_cipher, ptr null, i32 0, [4 x i8] zeroinitializer, ptr null, ptr null, ptr null, ptr null, i32 0, [4 x i8] zeroinitializer, ptr null, ptr null, ptr null, %struct.CRYPTO_REF_COUNT zeroinitializer, [4 x i8] zeroinitializer, ptr null, ptr null, ptr null, ptr null, ptr null, ptr null, ptr null, ptr null, ptr null, ptr null, ptr null, ptr null, ptr null, ptr null, ptr null, ptr null, ptr null, ptr null, ptr null, ptr null }, align 8

; Function Attrs: mustprogress nofree norecurse nosync nounwind willreturn memory(none) uwtable
define noundef nonnull ptr @EVP_enc_null() local_unnamed_addr #0 {
  ret ptr @n_cipher
}

; Function Attrs: mustprogress nofree norecurse nosync nounwind willreturn memory(none) uwtable
define internal noundef i32 @null_init_key(ptr readnone captures(none) %0, ptr readnone captures(none) %1, ptr readnone captures(none) %2, i32 %3) #0 {
  ret i32 1
}

; Function Attrs: mustprogress nofree norecurse nosync nounwind willreturn memory(argmem: readwrite) uwtable
define internal noundef i32 @null_cipher(ptr readnone captures(none) %0, ptr noundef writeonly captures(address) %1, ptr noundef readonly captures(address) %2, i64 noundef %3) #1 {
  %.not = icmp eq ptr %2, %1
  br i1 %.not, label %6, label %5

5:                                                ; preds = %4
  tail call void @llvm.memcpy.p0.p0.i64(ptr align 1 %1, ptr align 1 %2, i64 %3, i1 false)
  br label %6

6:                                                ; preds = %5, %4
  ret i32 1
}

; Function Attrs: mustprogress nocallback nofree nounwind willreturn memory(argmem: readwrite)
declare void @llvm.memcpy.p0.p0.i64(ptr noalias writeonly captures(none), ptr noalias readonly captures(none), i64, i1 immarg) #2


!llvm.module.flags = !{!0, !1, !2}

!0 = !{i32 1, !"wchar_size", i32 4}
!1 = !{i32 8, !"PIC Level", i32 2}
!2 = !{i32 7, !"uwtable", i32 2}
